Certificate:
    Data:
        Version: 3 (0x2)
        Serial Number: 2 (0x2)
    Signature Algorithm: sha256WithRSAEncryption
        Issuer: O=Test Qualcomm Technologies, Inc., OU=Test Qualcomm CDMA Technologies, CN=Test ISV A CA
        Validity
            Not Before: Jan  1 00:00:01 2014 GMT
            Not After : Dec 31 23:59:59 2015 GMT
        Subject: O=Test Qualcomm Technologies, Inc., OU=Test Qualcomm CDMA Technologies, CN=Test ISV A2
        Subject Public Key Info:
            Public Key Algorithm: rsaEncryption
                Public-Key: (2048 bit)
                Modulus:
                    00:c7:02:91:e9:03:e0:fb:79:f4:39:93:f4:cd:c3:
                    05:b9:66:4d:ba:9c:62:90:bd:3b:23:95:88:23:9d:
                    74:05:1d:4c:83:77:8f:64:dc:50:4d:68:90:98:bb:
                    ca:12:94:41:81:00:93:ec:69:0f:a2:fd:87:8c:40:
                    2a:bf:f5:a7:db:cb:95:43:e4:3f:d6:89:03:5c:3f:
                    e3:b6:e5:e1:35:1c:67:a1:90:b7:6d:47:20:56:2b:
                    0b:00:b6:5e:dc:18:99:95:6c:3f:26:84:23:c7:ea:
                    fb:0a:9b:85:a5:26:b3:c3:7d:7c:80:af:9e:cc:4c:
                    75:a3:33:da:3e:da:6b:98:8a:bd:c2:36:a1:7d:b4:
                    1c:dd:50:5e:01:f6:e8:d5:f8:1c:c1:0a:bf:7f:e0:
                    79:f3:db:ab:20:70:21:b6:7e:2d:23:37:ac:4c:17:
                    5a:66:ce:74:60:ef:bc:8b:2f:6b:f1:a7:ad:36:3a:
                    df:3f:9a:46:64:e2:28:58:a4:da:2b:4b:3d:e2:e6:
                    40:f3:6a:77:f7:c6:b9:e5:04:c9:76:6a:40:bf:85:
                    b4:59:17:a6:ff:63:4c:d3:43:66:5f:98:7d:ac:0e:
                    20:f1:a9:74:20:64:04:4f:10:29:74:f2:68:dd:95:
                    ee:ce:c8:a6:13:5a:a0:30:29:04:52:92:7d:c3:ea:
                    99:13
                Exponent: 65537 (0x10001)
        X509v3 extensions:
            X509v3 Key Usage: critical
                Digital Signature
            X509v3 Basic Constraints: critical
                CA:FALSE
            X509v3 Subject Key Identifier: 
                BC:FD:A9:46:07:49:80:1C:A0:C4:67:13:6B:77:87:7D:EF:4A:A5:90
    Signature Algorithm: sha256WithRSAEncryption
         51:d8:0e:44:5f:97:8a:3b:af:cd:aa:de:6e:e5:96:62:7a:63:
         77:ed:2b:44:15:96:3a:79:ba:c0:9a:e6:70:85:11:21:de:be:
         94:b7:dd:5e:8a:e2:e9:a4:c9:51:5e:92:8d:84:98:c8:25:43:
         bf:85:c4:dc:2c:ab:f2:48:4f:92:8a:d1:a2:fc:cf:7e:7b:33:
         79:96:10:5c:9c:c1:4b:69:ff:c0:e9:3d:fa:29:7d:24:fa:2a:
         b6:a1:80:c9:8e:6d:c9:a6:b0:fa:47:d3:e6:68:79:64:88:71:
         65:96:42:8c:06:32:cd:d9:ec:4f:d3:cb:5c:b8:90:68:4b:75:
         3e:5b:36:f0:c5:c5:ff:ce:c2:1e:b2:45:fc:7e:5c:01:61:12:
         38:4d:3f:21:b7:31:3e:f6:4b:2e:f8:41:b7:be:af:70:d2:95:
         65:5f:58:d2:78:4a:bd:ff:e6:1d:7d:5d:78:ff:81:ec:c8:cd:
         1e:5b:48:ff:e8:39:8c:68:95:fd:60:bd:3c:4c:4c:66:24:37:
         94:e1:e0:8f:1b:39:a2:6e:60:f3:12:d3:5b:c4:37:de:0f:f4:
         2e:df:e5:86:e3:4d:c5:a8:de:f0:b7:af:0b:c5:b1:26:a3:a3:
         1c:30:57:e4:b1:f3:43:b8:48:dd:c5:d6:7c:28:c2:b5:6b:5b:
         4a:40:33:2d
-----BEGIN CERTIFICATE-----
MIIDljCCAn6gAwIBAgIBAjANBgkqhkiG9w0BAQsFADBtMSkwJwYDVQQKDCBUZXN0
IFF1YWxjb21tIFRlY2hub2xvZ2llcywgSW5jLjEoMCYGA1UECwwfVGVzdCBRdWFs
Y29tbSBDRE1BIFRlY2hub2xvZ2llczEWMBQGA1UEAwwNVGVzdCBJU1YgQSBDQTAi
GA8yMDE0MDEwMTAwMDAwMVoYDzIwMTUxMjMxMjM1OTU5WjBrMSkwJwYDVQQKDCBU
ZXN0IFF1YWxjb21tIFRlY2hub2xvZ2llcywgSW5jLjEoMCYGA1UECwwfVGVzdCBR
dWFsY29tbSBDRE1BIFRlY2hub2xvZ2llczEUMBIGA1UEAwwLVGVzdCBJU1YgQTIw
ggEiMA0GCSqGSIb3DQEBAQUAA4IBDwAwggEKAoIBAQDHApHpA+D7efQ5k/TNwwW5
Zk26nGKQvTsjlYgjnXQFHUyDd49k3FBNaJCYu8oSlEGBAJPsaQ+i/YeMQCq/9afb
y5VD5D/WiQNcP+O25eE1HGehkLdtRyBWKwsAtl7cGJmVbD8mhCPH6vsKm4WlJrPD
fXyAr57MTHWjM9o+2muYir3CNqF9tBzdUF4B9ujV+BzBCr9/4Hnz26sgcCG2fi0j
N6xMF1pmznRg77yLL2vxp602Ot8/mkZk4ihYpNorSz3i5kDzanf3xrnlBMl2akC/
hbRZF6b/Y0zTQ2ZfmH2sDiDxqXQgZARPECl08mjdle7OyKYTWqAwKQRSkn3D6pkT
AgMBAAGjPzA9MA4GA1UdDwEB/wQEAwIHgDAMBgNVHRMBAf8EAjAAMB0GA1UdDgQW
BBS8/alGB0mAHKDEZxNrd4d970qlkDANBgkqhkiG9w0BAQsFAAOCAQEAUdgORF+X
ijuvzarebuWWYnpjd+0rRBWWOnm6wJrmcIURId6+lLfdXori6aTJUV6SjYSYyCVD
v4XE3Cyr8khPkorRovzPfnszeZYQXJzBS2n/wOk9+il9JPoqtqGAyY5tyaaw+kfT
5mh5ZIhxZZZCjAYyzdnsT9PLXLiQaEt1Pls28MXF/87CHrJF/H5cAWESOE0/Ibcx
PvZLLvhBt76vcNKVZV9Y0nhKvf/mHX1deP+B7MjNHltI/+g5jGiV/WC9PExMZiQ3
lOHgjxs5om5g8xLTW8Q33g/0Lt/lhuNNxaje8LevC8WxJqOjHDBX5LHzQ7hI3cXW
fCjCtWtbSkAzLQ==
-----END CERTIFICATE-----
