Certificate:
    Data:
        Version: 3 (0x2)
        Serial Number: 2 (0x2)
    Signature Algorithm: sha256WithRSAEncryption
        Issuer: O=Test Qualcomm Technologies, Inc., OU=Test Qualcomm CDMA Technologies, CN=Test MDTP Root CA
        Validity
            Not Before: Jan  1 00:00:01 2014 GMT
            Not After : Dec 31 23:59:59 2025 GMT
        Subject: O=Test Qualcomm Technologies, Inc., OU=Test Qualcomm CDMA Technologies, CN=Test ISV A CA
        Subject Public Key Info:
            Public Key Algorithm: rsaEncryption
                Public-Key: (2048 bit)
                Modulus:
                    00:ed:1e:31:2f:23:1f:6f:28:da:e0:b5:3c:85:ac:
                    ca:a6:7b:be:63:05:dd:c5:84:88:ff:c3:42:e7:6b:
                    83:5e:2e:e6:b5:d8:81:58:d6:95:d8:72:db:0b:8a:
                    02:86:20:89:15:fa:5e:30:27:91:94:50:c6:ce:98:
                    9e:e2:24:3e:4c:36:7e:0d:5a:49:07:9d:22:d1:1d:
                    4f:be:a4:65:47:6f:3a:76:b3:ed:f9:a1:04:57:a6:
                    70:41:8f:84:28:28:c5:de:55:9b:d5:c2:66:dc:ac:
                    f9:ee:23:61:49:1b:66:f6:5c:84:f5:dd:0c:56:b2:
                    d2:5d:a6:ce:f0:99:e2:3e:d3:61:05:5a:b7:47:9e:
                    85:b0:4e:e8:15:98:b5:94:52:79:ee:1a:e1:74:bb:
                    ba:09:62:dd:40:97:db:b6:0e:57:31:aa:39:00:36:
                    13:00:94:08:67:13:4e:e0:a2:87:a9:5c:a1:73:49:
                    57:2f:d4:d3:50:f6:ac:42:cd:45:ac:1e:97:63:37:
                    85:ba:ce:fb:ca:bd:f0:df:4e:c6:9f:c7:83:2a:ec:
                    b5:e1:be:18:13:13:0e:41:5f:ab:79:24:93:5c:8f:
                    62:08:9f:7e:d5:7d:17:76:23:b6:b0:19:f6:90:b1:
                    10:8d:ce:4f:16:a2:e2:f2:4a:37:eb:74:ac:03:61:
                    92:e5
                Exponent: 65537 (0x10001)
        X509v3 extensions:
            X509v3 Key Usage: critical
                Certificate Sign, CRL Sign
            X509v3 Basic Constraints: critical
                CA:TRUE, pathlen:0
            X509v3 Subject Key Identifier: 
                F2:8D:CB:8A:C5:A8:9C:59:32:B6:F3:63:5C:FA:26:1B:5D:3A:83:96
    Signature Algorithm: sha256WithRSAEncryption
         a1:9d:46:dd:b5:45:1e:48:ce:7d:c0:b2:66:42:9a:1e:29:e6:
         41:16:3f:bb:1d:32:c5:ac:48:ce:64:f9:06:e4:d9:b1:ed:15:
         79:5b:ba:4f:3b:52:2a:49:19:b9:d5:4d:49:d8:54:cf:67:2a:
         51:90:0e:0c:36:b2:18:a5:7f:19:79:84:08:1d:b4:a9:f6:42:
         8e:85:c1:42:52:36:0d:bf:89:67:9d:72:22:fa:1e:07:79:5a:
         bd:e1:8a:e0:8e:2c:79:91:1f:c8:3d:30:9e:b3:97:af:08:bb:
         a2:fe:2d:46:6c:ce:ea:f5:86:f2:ca:b8:78:ed:ce:83:07:3c:
         8a:44:f1:78:e3:80:8e:e1:e0:cd:07:a3:46:a2:df:5f:e4:d5:
         3a:18:af:de:8d:fb:d7:e7:2d:68:7d:06:b9:7b:c7:5b:bd:d2:
         79:a3:1b:0e:92:7a:58:79:98:25:b2:85:4d:08:92:7a:ca:6e:
         2c:2a:74:11:cc:9f:24:d4:4d:5f:75:0d:19:cf:63:c5:c0:46:
         7e:f5:7a:20:7b:13:17:b2:8c:11:c0:b8:dc:a7:12:09:09:aa:
         3a:17:a4:ce:5c:26:e8:b2:ef:5c:89:6a:43:4d:83:6b:05:8e:
         a5:46:3f:ef:6c:0c:ef:0e:84:5f:76:fd:52:35:64:a0:5c:f4:
         8e:52:22:aa
-----BEGIN CERTIFICATE-----
MIIDojCCAoqgAwIBAgIBAjANBgkqhkiG9w0BAQsFADBxMSkwJwYDVQQKDCBUZXN0
IFF1YWxjb21tIFRlY2hub2xvZ2llcywgSW5jLjEoMCYGA1UECwwfVGVzdCBRdWFs
Y29tbSBDRE1BIFRlY2hub2xvZ2llczEaMBgGA1UEAwwRVGVzdCBNRFRQIFJvb3Qg
Q0EwIhgPMjAxNDAxMDEwMDAwMDFaGA8yMDI1MTIzMTIzNTk1OVowbTEpMCcGA1UE
CgwgVGVzdCBRdWFsY29tbSBUZWNobm9sb2dpZXMsIEluYy4xKDAmBgNVBAsMH1Rl
c3QgUXVhbGNvbW0gQ0RNQSBUZWNobm9sb2dpZXMxFjAUBgNVBAMMDVRlc3QgSVNW
IEEgQ0EwggEiMA0GCSqGSIb3DQEBAQUAA4IBDwAwggEKAoIBAQDtHjEvIx9vKNrg
tTyFrMqme75jBd3FhIj/w0Lna4NeLua12IFY1pXYctsLigKGIIkV+l4wJ5GUUMbO
mJ7iJD5MNn4NWkkHnSLRHU++pGVHbzp2s+35oQRXpnBBj4QoKMXeVZvVwmbcrPnu
I2FJG2b2XIT13QxWstJdps7wmeI+02EFWrdHnoWwTugVmLWUUnnuGuF0u7oJYt1A
l9u2DlcxqjkANhMAlAhnE07gooepXKFzSVcv1NNQ9qxCzUWsHpdjN4W6zvvKvfDf
Tsafx4Mq7LXhvhgTEw5BX6t5JJNcj2IIn37VfRd2I7awGfaQsRCNzk8WouLySjfr
dKwDYZLlAgMBAAGjRTBDMA4GA1UdDwEB/wQEAwIBBjASBgNVHRMBAf8ECDAGAQH/
AgEAMB0GA1UdDgQWBBTyjcuKxaicWTK282Nc+iYbXTqDljANBgkqhkiG9w0BAQsF
AAOCAQEAoZ1G3bVFHkjOfcCyZkKaHinmQRY/ux0yxaxIzmT5BuTZse0VeVu6TztS
KkkZudVNSdhUz2cqUZAODDayGKV/GXmECB20qfZCjoXBQlI2Db+JZ51yIvoeB3la
veGK4I4seZEfyD0wnrOXrwi7ov4tRmzO6vWG8sq4eO3Ogwc8ikTxeOOAjuHgzQej
RqLfX+TVOhiv3o371+ctaH0GuXvHW73SeaMbDpJ6WHmYJbKFTQiSespuLCp0Ecyf
JNRNX3UNGc9jxcBGfvV6IHsTF7KMEcC43KcSCQmqOhekzlwm6LLvXIlqQ02DawWO
pUY/72wM7w6EX3b9UjVkoFz0jlIiqg==
-----END CERTIFICATE-----
