Certificate:
    Data:
        Version: 3 (0x2)
        Serial Number: 2 (0x2)
    Signature Algorithm: sha256WithRSAEncryption
        Issuer: O=Test Qualcomm Technologies, Inc., OU=Test Qualcomm CDMA Technologies, CN=Test ISV B CA
        Validity
            Not Before: Jan  1 00:00:01 2014 GMT
            Not After : Dec 31 23:59:59 2015 GMT
        Subject: O=Test Qualcomm Technologies, Inc., OU=Test Qualcomm CDMA Technologies, CN=Test ISV B2
        Subject Public Key Info:
            Public Key Algorithm: rsaEncryption
                Public-Key: (2048 bit)
                Modulus:
                    00:bb:74:fd:16:c2:fe:57:f6:d3:8e:5b:5c:d1:af:
                    51:65:27:f7:12:7a:49:d4:f8:62:cc:48:12:1d:28:
                    74:61:53:e5:50:72:01:e4:33:62:7a:94:18:39:ff:
                    13:b1:93:9c:6a:ed:03:0e:1f:e5:ec:8f:29:a4:89:
                    90:77:59:90:ff:78:9d:44:4a:a6:d5:65:a8:39:f6:
                    de:10:88:c2:cd:ca:24:36:94:8c:5d:41:54:ec:2f:
                    6b:db:ed:ca:4f:51:83:ec:93:32:b3:70:06:65:b0:
                    8b:2b:9a:da:c5:f7:80:ce:d0:75:91:6d:b2:b3:f5:
                    92:c3:c9:ca:b1:4b:13:bf:15:4e:58:eb:68:e1:79:
                    af:c3:8e:1a:3e:7e:a1:55:49:14:3f:12:b3:22:33:
                    90:24:9e:80:58:8b:ce:bb:ee:63:1e:53:47:ea:5c:
                    5e:d9:74:fb:3c:97:dc:d3:ee:5f:f4:d3:13:27:3d:
                    2a:03:65:52:5d:84:1c:41:00:06:16:3b:63:f6:7e:
                    55:6a:b0:17:4e:db:29:fa:87:e7:a2:e8:62:e1:4f:
                    ff:48:6d:b0:c3:95:e2:70:4b:ad:cd:ea:c0:18:95:
                    17:73:01:00:26:0d:ee:6e:23:d5:07:90:60:35:29:
                    24:81:29:4f:d7:6a:41:f4:e3:26:76:a9:8a:eb:e2:
                    f1:7b
                Exponent: 65537 (0x10001)
        X509v3 extensions:
            X509v3 Key Usage: critical
                Digital Signature
            X509v3 Basic Constraints: critical
                CA:FALSE
            X509v3 Subject Key Identifier: 
                E9:BA:D8:DF:F1:C2:D7:BB:FB:9B:E6:1F:80:AF:2C:AA:93:69:99:D8
    Signature Algorithm: sha256WithRSAEncryption
         68:77:13:78:ae:6a:b9:39:13:47:b2:d1:69:4f:92:d0:26:23:
         63:eb:d0:11:cf:4e:58:9a:96:c3:c4:1d:63:d4:4d:4e:84:c9:
         e1:8c:98:00:44:cd:b0:cb:cc:72:70:69:51:7a:c5:c7:ed:b6:
         d0:a5:43:9a:de:35:21:f0:b4:9b:2f:a2:8a:02:df:38:83:b7:
         a8:10:e0:57:3e:7d:b1:26:5a:cf:00:46:d6:c3:30:0f:17:db:
         56:cb:a0:de:6f:d8:f5:55:b1:bc:42:87:4e:26:4c:65:50:b6:
         b9:44:db:d6:bd:2c:6d:b7:57:5b:69:ae:86:c6:f9:fd:55:e2:
         29:0f:33:a1:15:da:ed:00:15:7d:51:5b:8d:bc:65:56:2e:b2:
         d6:f0:04:24:62:a4:d9:ca:b2:4c:7a:91:5a:60:78:a3:5b:76:
         43:17:3b:ae:07:5e:fa:91:aa:5b:80:6a:fa:7b:9c:4a:7c:17:
         39:c6:e7:b7:3b:e0:d1:2b:8a:e9:1f:4e:4c:07:96:21:e8:1b:
         80:88:a0:b8:59:55:73:08:b6:53:14:f0:a4:0f:17:8f:2c:d1:
         fb:10:17:20:67:e0:3e:dc:21:0a:65:e0:71:b9:40:dd:08:55:
         36:c7:93:a9:0f:ca:07:8d:84:b5:eb:66:29:bb:14:14:93:5a:
         3b:35:0c:df
-----BEGIN CERTIFICATE-----
MIIDljCCAn6gAwIBAgIBAjANBgkqhkiG9w0BAQsFADBtMSkwJwYDVQQKDCBUZXN0
IFF1YWxjb21tIFRlY2hub2xvZ2llcywgSW5jLjEoMCYGA1UECwwfVGVzdCBRdWFs
Y29tbSBDRE1BIFRlY2hub2xvZ2llczEWMBQGA1UEAwwNVGVzdCBJU1YgQiBDQTAi
GA8yMDE0MDEwMTAwMDAwMVoYDzIwMTUxMjMxMjM1OTU5WjBrMSkwJwYDVQQKDCBU
ZXN0IFF1YWxjb21tIFRlY2hub2xvZ2llcywgSW5jLjEoMCYGA1UECwwfVGVzdCBR
dWFsY29tbSBDRE1BIFRlY2hub2xvZ2llczEUMBIGA1UEAwwLVGVzdCBJU1YgQjIw
ggEiMA0GCSqGSIb3DQEBAQUAA4IBDwAwggEKAoIBAQC7dP0Wwv5X9tOOW1zRr1Fl
J/cSeknU+GLMSBIdKHRhU+VQcgHkM2J6lBg5/xOxk5xq7QMOH+XsjymkiZB3WZD/
eJ1ESqbVZag59t4QiMLNyiQ2lIxdQVTsL2vb7cpPUYPskzKzcAZlsIsrmtrF94DO
0HWRbbKz9ZLDycqxSxO/FU5Y62jhea/Djho+fqFVSRQ/ErMiM5AknoBYi8677mMe
U0fqXF7ZdPs8l9zT7l/00xMnPSoDZVJdhBxBAAYWO2P2flVqsBdO2yn6h+ei6GLh
T/9IbbDDleJwS63N6sAYlRdzAQAmDe5uI9UHkGA1KSSBKU/XakH04yZ2qYrr4vF7
AgMBAAGjPzA9MA4GA1UdDwEB/wQEAwIHgDAMBgNVHRMBAf8EAjAAMB0GA1UdDgQW
BBTputjf8cLXu/ub5h+Aryyqk2mZ2DANBgkqhkiG9w0BAQsFAAOCAQEAaHcTeK5q
uTkTR7LRaU+S0CYjY+vQEc9OWJqWw8QdY9RNToTJ4YyYAETNsMvMcnBpUXrFx+22
0KVDmt41IfC0my+iigLfOIO3qBDgVz59sSZazwBG1sMwDxfbVsug3m/Y9VWxvEKH
TiZMZVC2uUTb1r0sbbdXW2muhsb5/VXiKQ8zoRXa7QAVfVFbjbxlVi6y1vAEJGKk
2cqyTHqRWmB4o1t2Qxc7rgde+pGqW4Bq+nucSnwXOcbntzvg0SuK6R9OTAeWIegb
gIiguFlVcwi2UxTwpA8XjyzR+xAXIGfgPtwhCmXgcblA3QhVNseTqQ/KB42Etetm
KbsUFJNaOzUM3w==
-----END CERTIFICATE-----
