Certificate:
    Data:
        Version: 3 (0x2)
        Serial Number: 3 (0x3)
    Signature Algorithm: sha256WithRSAEncryption
        Issuer: O=Test Qualcomm Technologies, Inc., OU=Test Qualcomm CDMA Technologies, CN=Test MDTP Root CA
        Validity
            Not Before: Jan  1 00:00:01 2014 GMT
            Not After : Dec 31 23:59:59 2025 GMT
        Subject: O=Test Qualcomm Technologies, Inc., OU=Test Qualcomm CDMA Technologies, CN=Test ISV B CA
        Subject Public Key Info:
            Public Key Algorithm: rsaEncryption
                Public-Key: (2048 bit)
                Modulus:
                    00:a0:84:95:35:cc:54:d1:54:10:3c:8f:5d:93:e4:
                    1b:ab:9a:26:d7:97:f5:dc:c8:cb:1b:31:33:b8:08:
                    ef:9b:15:e3:e3:5a:2d:9d:e2:6f:63:c7:b6:39:e1:
                    7d:1a:6a:d0:9d:27:f1:65:a0:30:29:ef:3b:0b:da:
                    e6:24:9b:77:cd:e0:7b:77:46:8f:28:c2:bb:35:a9:
                    aa:80:e4:08:4d:b9:43:1d:cb:58:df:7d:41:57:83:
                    01:70:25:66:36:0a:b1:94:e8:af:08:4b:5c:d4:1b:
                    28:aa:38:6f:86:1a:76:7a:2f:09:8e:3e:d8:4d:69:
                    71:fb:6d:57:46:4d:08:36:95:ea:bd:e8:df:97:67:
                    ad:99:90:e5:4b:c7:13:dc:ba:d8:fc:35:f2:ff:d7:
                    c2:54:66:3a:77:18:26:05:8d:b3:8d:c2:e2:a8:b5:
                    fa:60:0e:40:32:b0:7a:02:ed:15:c1:c6:27:0f:9d:
                    fb:45:05:23:bf:8d:35:48:af:48:50:a0:8d:db:9a:
                    b1:1c:63:08:05:cf:fd:e5:43:db:50:d0:c2:eb:df:
                    89:e2:39:b9:57:d6:8e:cd:dc:ec:6a:3f:53:0a:30:
                    d0:00:cc:e7:b9:96:4f:aa:c9:c0:98:9c:f9:39:49:
                    f5:15:19:e8:da:76:0a:b4:33:bd:e2:90:fb:1a:bc:
                    40:3d
                Exponent: 65537 (0x10001)
        X509v3 extensions:
            X509v3 Key Usage: critical
                Certificate Sign, CRL Sign
            X509v3 Basic Constraints: critical
                CA:TRUE, pathlen:0
            X509v3 Subject Key Identifier: 
                21:8B:76:D1:9D:6C:9C:F1:B2:C8:35:4C:13:78:36:1B:3E:36:24:E1
    Signature Algorithm: sha256WithRSAEncryption
         87:33:05:44:cc:25:ee:aa:38:74:68:9a:93:b7:e2:05:17:4d:
         bd:56:fb:df:ae:4d:56:75:93:dc:45:28:02:44:01:af:eb:c7:
         85:20:7d:0e:e4:61:9c:ea:a0:f1:18:4a:92:a9:09:2c:16:ba:
         6a:f6:a1:5f:79:c8:90:68:34:bc:82:3b:fe:bd:78:65:75:f2:
         46:43:4a:f3:33:81:76:cb:83:00:34:2d:88:2a:59:4e:fd:a1:
         e6:20:ec:17:95:c3:fe:0f:f6:70:14:7f:30:7b:44:5b:af:e6:
         76:3f:af:ad:78:d9:61:62:62:64:f6:61:0f:08:3f:7e:7c:8c:
         8e:bb:b3:40:c2:77:10:fe:c5:3a:a2:c1:4c:ba:1d:2b:78:e4:
         1f:9a:8c:d7:44:bf:05:29:6a:1d:d5:87:aa:e3:cd:f2:14:a7:
         cd:87:25:4b:15:d2:75:4f:7b:02:14:c5:7e:ed:b3:ee:c5:c1:
         4a:53:5c:af:e4:fa:9e:9b:80:f2:40:2e:48:88:6c:55:59:3c:
         ba:86:18:33:61:54:86:b3:3f:04:50:16:82:05:22:d1:5e:32:
         9f:fc:de:4e:61:fb:21:31:a1:69:ae:29:8f:1b:0c:cc:b8:31:
         7a:8b:ba:02:24:a4:aa:9e:3f:64:83:91:85:dc:39:81:93:ae:
         2d:c6:ba:f3
-----BEGIN CERTIFICATE-----
MIIDojCCAoqgAwIBAgIBAzANBgkqhkiG9w0BAQsFADBxMSkwJwYDVQQKDCBUZXN0
IFF1YWxjb21tIFRlY2hub2xvZ2llcywgSW5jLjEoMCYGA1UECwwfVGVzdCBRdWFs
Y29tbSBDRE1BIFRlY2hub2xvZ2llczEaMBgGA1UEAwwRVGVzdCBNRFRQIFJvb3Qg
Q0EwIhgPMjAxNDAxMDEwMDAwMDFaGA8yMDI1MTIzMTIzNTk1OVowbTEpMCcGA1UE
CgwgVGVzdCBRdWFsY29tbSBUZWNobm9sb2dpZXMsIEluYy4xKDAmBgNVBAsMH1Rl
c3QgUXVhbGNvbW0gQ0RNQSBUZWNobm9sb2dpZXMxFjAUBgNVBAMMDVRlc3QgSVNW
IEIgQ0EwggEiMA0GCSqGSIb3DQEBAQUAA4IBDwAwggEKAoIBAQCghJU1zFTRVBA8
j12T5BurmibXl/XcyMsbMTO4CO+bFePjWi2d4m9jx7Y54X0aatCdJ/FloDAp7zsL
2uYkm3fN4Ht3Ro8owrs1qaqA5AhNuUMdy1jffUFXgwFwJWY2CrGU6K8IS1zUGyiq
OG+GGnZ6LwmOPthNaXH7bVdGTQg2leq96N+XZ62ZkOVLxxPcutj8NfL/18JUZjp3
GCYFjbONwuKotfpgDkAysHoC7RXBxicPnftFBSO/jTVIr0hQoI3bmrEcYwgFz/3l
Q9tQ0MLr34niOblX1o7N3OxqP1MKMNAAzOe5lk+qycCYnPk5SfUVGejadgq0M73i
kPsavEA9AgMBAAGjRTBDMA4GA1UdDwEB/wQEAwIBBjASBgNVHRMBAf8ECDAGAQH/
AgEAMB0GA1UdDgQWBBQhi3bRnWyc8bLINUwTeDYbPjYk4TANBgkqhkiG9w0BAQsF
AAOCAQEAhzMFRMwl7qo4dGiak7fiBRdNvVb7365NVnWT3EUoAkQBr+vHhSB9DuRh
nOqg8RhKkqkJLBa6avahX3nIkGg0vII7/r14ZXXyRkNK8zOBdsuDADQtiCpZTv2h
5iDsF5XD/g/2cBR/MHtEW6/mdj+vrXjZYWJiZPZhDwg/fnyMjruzQMJ3EP7FOqLB
TLodK3jkH5qM10S/BSlqHdWHquPN8hSnzYclSxXSdU97AhTFfu2z7sXBSlNcr+T6
npuA8kAuSIhsVVk8uoYYM2FUhrM/BFAWggUi0V4yn/zeTmH7ITGhaa4pjxsMzLgx
eou6AiSkqp4/ZIORhdw5gZOuLca68w==
-----END CERTIFICATE-----
