Certificate:
    Data:
        Version: 3 (0x2)
        Serial Number: 1 (0x1)
    Signature Algorithm: sha256WithRSAEncryption
        Issuer: O=Test Qualcomm Technologies, Inc., OU=Test Qualcomm CDMA Technologies, CN=Test ISV B CA
        Validity
            Not Before: Jan  1 00:00:01 2014 GMT
            Not After : Dec 31 23:59:59 2015 GMT
        Subject: O=Test Qualcomm Technologies, Inc., OU=Test Qualcomm CDMA Technologies, CN=Test ISV B1
        Subject Public Key Info:
            Public Key Algorithm: rsaEncryption
                Public-Key: (2048 bit)
                Modulus:
                    00:bd:96:ea:fc:c2:79:61:42:93:5f:e3:d1:cc:71:
                    33:da:37:12:19:cc:92:35:a3:2a:15:91:c2:dc:76:
                    e5:63:c4:7e:dc:01:6f:94:42:c6:6d:8c:83:b7:c4:
                    a9:21:5c:4d:52:04:f5:28:53:17:a2:be:4b:5f:9e:
                    87:b0:85:99:a8:9b:e4:fe:93:3f:e6:56:ee:77:30:
                    e9:83:a5:05:c7:e0:2a:45:e6:4f:9d:3a:9c:b1:1a:
                    79:5d:c5:bc:32:4b:fc:c4:26:3f:c9:2b:30:1f:e8:
                    92:97:8b:85:11:e4:72:d1:92:cd:14:c8:f4:ed:e1:
                    60:de:b8:df:c5:6a:56:48:b3:84:a6:2f:b7:01:23:
                    40:92:1d:d7:2e:e9:79:57:7b:3f:35:f3:8b:03:7d:
                    21:16:11:f8:7e:85:cb:8a:99:f5:c4:b7:80:8c:a5:
                    39:41:86:f1:0c:5a:d0:cc:44:20:d2:6e:43:23:33:
                    3f:1c:c8:7e:87:00:f5:2d:fb:4f:6c:40:02:7a:97:
                    db:0a:a8:1c:90:ca:7f:6d:97:79:42:8a:ac:d6:26:
                    16:b9:da:17:d2:0d:23:92:58:b6:52:25:1b:bd:66:
                    8e:9f:ce:4f:6c:1d:55:ca:39:11:50:46:e4:dd:77:
                    0b:de:ba:55:0e:ac:62:22:44:2c:e2:05:93:c5:c0:
                    aa:3f
                Exponent: 65537 (0x10001)
        X509v3 extensions:
            X509v3 Key Usage: critical
                Digital Signature
            X509v3 Basic Constraints: critical
                CA:FALSE
            X509v3 Subject Key Identifier: 
                0D:76:27:CB:0F:45:F1:AD:C1:38:74:89:9C:7F:5A:7E:5E:CA:85:4F
    Signature Algorithm: sha256WithRSAEncryption
         6b:ed:12:b3:eb:ea:62:88:2c:ba:62:63:56:a5:ed:34:6f:cc:
         a5:90:63:48:62:52:10:c9:21:7b:69:ea:c6:22:71:04:c4:1e:
         b5:d8:56:51:bb:89:10:d0:45:5f:f4:eb:8a:07:81:f6:ad:f8:
         4d:5d:73:d1:69:2e:8c:f5:ec:41:35:ea:d2:92:49:c9:53:97:
         ae:b7:2f:7d:83:de:83:27:0f:25:a6:b1:03:fb:99:0e:2a:c8:
         94:11:76:a1:ce:f3:ca:a7:86:2d:5e:06:99:f6:3f:77:69:fb:
         59:01:8e:d2:54:a8:85:8b:f3:51:d9:63:5e:a0:5e:31:a1:f7:
         42:3e:12:67:45:f2:32:65:5b:b9:ce:10:bb:5b:c3:25:ad:5e:
         29:7d:a5:cb:e3:d6:b3:46:17:60:52:99:77:3b:4c:eb:ae:30:
         30:f7:dd:fc:ad:df:f1:f1:92:96:01:44:19:74:f9:ed:bd:a4:
         43:08:ce:8e:b2:65:45:a4:bf:5b:7d:36:46:a9:a7:bd:f9:6b:
         1d:88:2c:cc:0f:1e:a4:04:e1:6d:d4:ac:34:c6:db:47:c1:2e:
         16:78:98:5c:21:33:da:70:61:c2:92:43:8b:87:b5:a2:a8:5f:
         fd:5c:18:cc:d1:74:c4:ac:ae:69:ab:08:b0:fb:ac:6d:24:8f:
         8d:4b:73:03
-----BEGIN CERTIFICATE-----
MIIDljCCAn6gAwIBAgIBATANBgkqhkiG9w0BAQsFADBtMSkwJwYDVQQKDCBUZXN0
IFF1YWxjb21tIFRlY2hub2xvZ2llcywgSW5jLjEoMCYGA1UECwwfVGVzdCBRdWFs
Y29tbSBDRE1BIFRlY2hub2xvZ2llczEWMBQGA1UEAwwNVGVzdCBJU1YgQiBDQTAi
GA8yMDE0MDEwMTAwMDAwMVoYDzIwMTUxMjMxMjM1OTU5WjBrMSkwJwYDVQQKDCBU
ZXN0IFF1YWxjb21tIFRlY2hub2xvZ2llcywgSW5jLjEoMCYGA1UECwwfVGVzdCBR
dWFsY29tbSBDRE1BIFRlY2hub2xvZ2llczEUMBIGA1UEAwwLVGVzdCBJU1YgQjEw
ggEiMA0GCSqGSIb3DQEBAQUAA4IBDwAwggEKAoIBAQC9lur8wnlhQpNf49HMcTPa
NxIZzJI1oyoVkcLcduVjxH7cAW+UQsZtjIO3xKkhXE1SBPUoUxeivktfnoewhZmo
m+T+kz/mVu53MOmDpQXH4CpF5k+dOpyxGnldxbwyS/zEJj/JKzAf6JKXi4UR5HLR
ks0UyPTt4WDeuN/FalZIs4SmL7cBI0CSHdcu6XlXez8184sDfSEWEfh+hcuKmfXE
t4CMpTlBhvEMWtDMRCDSbkMjMz8cyH6HAPUt+09sQAJ6l9sKqByQyn9tl3lCiqzW
Jha52hfSDSOSWLZSJRu9Zo6fzk9sHVXKORFQRuTddwveulUOrGIiRCziBZPFwKo/
AgMBAAGjPzA9MA4GA1UdDwEB/wQEAwIHgDAMBgNVHRMBAf8EAjAAMB0GA1UdDgQW
BBQNdifLD0XxrcE4dImcf1p+XsqFTzANBgkqhkiG9w0BAQsFAAOCAQEAa+0Ss+vq
YogsumJjVqXtNG/MpZBjSGJSEMkhe2nqxiJxBMQetdhWUbuJENBFX/TrigeB9q34
TV1z0WkujPXsQTXq0pJJyVOXrrcvfYPegycPJaaxA/uZDirIlBF2oc7zyqeGLV4G
mfY/d2n7WQGO0lSohYvzUdljXqBeMaH3Qj4SZ0XyMmVbuc4Qu1vDJa1eKX2ly+PW
s0YXYFKZdztM664wMPfd/K3f8fGSlgFEGXT57b2kQwjOjrJlRaS/W302Rqmnvflr
HYgszA8epAThbdSsNMbbR8EuFniYXCEz2nBhwpJDi4e1oqhf/VwYzNF0xKyuaasI
sPusbSSPjUtzAw==
-----END CERTIFICATE-----
