Certificate:
    Data:
        Version: 3 (0x2)
        Serial Number: 1 (0x1)
    Signature Algorithm: sha256WithRSAEncryption
        Issuer: O=Test Qualcomm Technologies, Inc., OU=Test Qualcomm CDMA Technologies, CN=Test MDTP Root CA
        Validity
            Not Before: Jan  1 00:00:01 2014 GMT
            Not After : Dec 31 23:59:59 2035 GMT
        Subject: O=Test Qualcomm Technologies, Inc., OU=Test Qualcomm CDMA Technologies, CN=Test MDTP Root CA
        Subject Public Key Info:
            Public Key Algorithm: rsaEncryption
                Public-Key: (2048 bit)
                Modulus:
                    00:a7:88:fa:46:98:01:a2:05:d9:43:69:a7:1e:e7:
                    07:27:ec:17:11:64:01:3f:45:d0:16:6c:c1:47:a6:
                    e0:02:08:ba:76:26:44:46:b4:56:d0:ba:3f:bc:69:
                    15:c9:95:07:93:5b:2e:1e:33:4b:5b:11:58:b6:b1:
                    46:3b:9e:d1:7d:2d:6a:c8:18:18:3a:6d:94:5a:82:
                    ac:51:54:3c:e3:ba:7f:eb:4b:fc:57:2d:75:14:8c:
                    ed:af:61:0b:a4:06:b4:ce:aa:e6:12:54:3a:ca:f2:
                    37:bf:b7:33:37:23:9e:b0:e4:49:7f:0c:e6:9b:44:
                    68:b0:17:e4:27:41:09:c5:d7:63:52:1f:d5:6d:a6:
                    e9:c3:88:06:be:ee:b8:ea:6f:22:ed:5c:8e:45:ab:
                    da:34:c5:9b:7a:43:bd:0d:07:3c:ec:9a:82:b1:8a:
                    25:b3:d2:6d:d2:5f:be:74:7e:77:33:dd:e1:37:c5:
                    3e:18:cd:e1:b4:cb:d8:b1:3d:c1:7c:59:2f:cd:af:
                    b1:2c:67:dc:64:b4:21:62:e7:8e:02:b1:64:37:61:
                    71:8a:0f:c4:4a:b3:d6:77:4e:00:56:0d:0e:b4:7f:
                    8e:23:2c:4d:32:8b:1f:02:b7:ec:7b:88:2e:38:ef:
                    51:7f:1e:03:77:38:a2:83:c3:0a:99:22:14:0d:5a:
                    4a:cd
                Exponent: 65537 (0x10001)
        X509v3 extensions:
            X509v3 Key Usage: critical
                Certificate Sign, CRL Sign
            X509v3 Basic Constraints: critical
                CA:TRUE
            X509v3 Subject Key Identifier: 
                B9:2D:DC:6F:9F:54:06:73:2F:9A:4F:98:CA:C6:67:7C:A6:3C:38:0E
    Signature Algorithm: sha256WithRSAEncryption
         47:c1:2c:84:ed:7e:f9:1b:be:f4:82:79:fa:3a:8b:8a:6c:72:
         d4:13:05:cf:da:44:4a:99:35:b5:57:08:70:9c:9b:ae:67:01:
         d7:93:2a:df:7d:d3:fc:42:1c:fb:80:7c:9b:46:4f:7c:bb:ed:
         ab:7d:e7:32:73:3a:03:c7:14:e6:27:d2:46:0a:d4:88:a6:1c:
         63:14:21:ad:b3:20:da:87:dd:52:9b:34:e3:25:ba:d7:b9:ed:
         00:02:32:59:b3:36:de:b8:d3:b3:cb:6f:8a:be:ff:7e:92:6a:
         b3:c0:20:63:77:c5:df:85:80:8d:ce:7f:c8:d4:8a:7a:cb:c9:
         e2:88:a5:75:7f:b1:ba:69:a6:99:40:2f:dc:b0:35:b6:3d:5d:
         d5:7e:0c:ae:a6:9b:26:1b:4d:d6:a6:22:48:b7:8f:aa:cc:2f:
         e9:56:b9:32:7f:03:cb:3f:6b:f7:4c:2a:56:c8:0b:24:c0:a3:
         f6:50:8a:27:88:24:dc:86:ff:60:e9:48:e0:f8:6e:a3:6b:48:
         14:13:7c:19:fe:b2:55:7d:a4:f5:cc:55:09:dc:74:55:eb:9c:
         71:43:16:bd:73:e0:c5:4e:06:af:5c:d9:4f:f0:e0:4f:df:b3:
         01:20:c0:74:50:35:0e:92:05:68:51:a6:ca:83:01:29:77:92:
         0d:01:ec:16
-----BEGIN CERTIFICATE-----
MIIDozCCAougAwIBAgIBATANBgkqhkiG9w0BAQsFADBxMSkwJwYDVQQKDCBUZXN0
IFF1YWxjb21tIFRlY2hub2xvZ2llcywgSW5jLjEoMCYGA1UECwwfVGVzdCBRdWFs
Y29tbSBDRE1BIFRlY2hub2xvZ2llczEaMBgGA1UEAwwRVGVzdCBNRFRQIFJvb3Qg
Q0EwIhgPMjAxNDAxMDEwMDAwMDFaGA8yMDM1MTIzMTIzNTk1OVowcTEpMCcGA1UE
CgwgVGVzdCBRdWFsY29tbSBUZWNobm9sb2dpZXMsIEluYy4xKDAmBgNVBAsMH1Rl
c3QgUXVhbGNvbW0gQ0RNQSBUZWNobm9sb2dpZXMxGjAYBgNVBAMMEVRlc3QgTURU
UCBSb290IENBMIIBIjANBgkqhkiG9w0BAQEFAAOCAQ8AMIIBCgKCAQEAp4j6RpgB
ogXZQ2mnHucHJ+wXEWQBP0XQFmzBR6bgAgi6diZERrRW0Lo/vGkVyZUHk1suHjNL
WxFYtrFGO57RfS1qyBgYOm2UWoKsUVQ847p/60v8Vy11FIztr2ELpAa0zqrmElQ6
yvI3v7czNyOesORJfwzmm0RosBfkJ0EJxddjUh/Vbabpw4gGvu646m8i7VyORava
NMWbekO9DQc87JqCsYols9Jt0l++dH53M93hN8U+GM3htMvYsT3BfFkvza+xLGfc
ZLQhYueOArFkN2Fxig/ESrPWd04AVg0OtH+OIyxNMosfArfse4guOO9Rfx4Ddzii
g8MKmSIUDVpKzQIDAQABo0IwQDAOBgNVHQ8BAf8EBAMCAQYwDwYDVR0TAQH/BAUw
AwEB/zAdBgNVHQ4EFgQUuS3cb59UBnMvmk+YysZnfKY8OA4wDQYJKoZIhvcNAQEL
BQADggEBAEfBLITtfvkbvvSCefo6i4psctQTBc/aREqZNbVXCHCcm65nAdeTKt99
0/xCHPuAfJtGT3y77at95zJzOgPHFOYn0kYK1IimHGMUIa2zINqH3VKbNOMlute5
7QACMlmzNt6407PLb4q+/36SarPAIGN3xd+FgI3Of8jUinrLyeKIpXV/sbpppplA
L9ywNbY9XdV+DK6mmyYbTdamIki3j6rML+lWuTJ/A8s/a/dMKlbICyTAo/ZQiieI
JNyG/2DpSOD4bqNrSBQTfBn+slV9pPXMVQncdFXrnHFDFr1z4MVOBq9c2U/w4E/f
swEgwHRQNQ6SBWhRpsqDASl3kg0B7BY=
-----END CERTIFICATE-----
