Copyright (c) 2015 Qualcomm Technologies, Inc.
All Rights Reserved.
Confidential and Proprietary - Qualcomm Technologies, Inc.

Certificate:
    Data:
        Version: 3 (0x2)
        Serial Number: 1 (0x1)
    Signature Algorithm: sha256WithRSAEncryption
        Issuer: O=Test Qualcomm Technologies, Inc., OU=Test Qualcomm CDMA Technologies, CN=Test ISV A CA
        Validity
            Not Before: Jan  1 00:00:01 2014 GMT
            Not After : Dec 31 23:59:59 2015 GMT
        Subject: O=Test Qualcomm Technologies, Inc., OU=Test Qualcomm CDMA Technologies, CN=Test ISV A1
        Subject Public Key Info:
            Public Key Algorithm: rsaEncryption
                Public-Key: (2048 bit)
                Modulus:
                    00:c1:fe:c7:11:c7:70:73:84:17:44:6e:03:42:67:
                    17:f0:39:c4:b3:70:34:63:3b:c1:2a:1f:06:5e:bf:
                    4b:5d:61:a9:7c:21:40:08:a4:4d:80:34:66:16:42:
                    37:a6:ab:f2:90:c2:f0:d9:ea:46:d5:0b:7f:65:8d:
                    46:c8:09:45:8c:45:cb:99:b1:81:46:f2:3d:69:a7:
                    05:fd:02:25:25:3a:22:f3:21:28:c4:b6:a5:e3:15:
                    26:c4:e9:45:cc:77:6d:9c:5e:38:dd:d9:41:8f:99:
                    81:be:29:43:f9:3a:d3:f1:d9:17:92:2e:0b:16:a7:
                    e1:2c:7f:18:5d:83:e4:06:1a:da:8f:56:3c:da:5b:
                    97:57:54:04:fc:ac:60:d2:a1:ea:e6:47:a7:ba:a8:
                    81:a1:b7:86:49:21:02:fe:63:3c:76:c8:48:4a:c1:
                    29:1d:f9:a1:39:27:4c:21:b9:89:38:54:c3:6f:3f:
                    6a:ea:85:95:54:17:b8:77:a8:07:d0:a0:f7:a8:77:
                    47:e2:72:96:f8:45:cb:28:49:07:34:94:d2:99:ca:
                    9f:09:86:a9:d0:39:e1:f3:74:e0:0f:50:73:27:c4:
                    3e:76:ff:5f:17:0b:2c:b2:7c:0b:63:6f:aa:32:8d:
                    20:c0:ae:9a:2c:7a:ef:5e:f7:65:50:38:b7:8e:a6:
                    05:33
                Exponent: 65537 (0x10001)
        X509v3 extensions:
            X509v3 Key Usage: critical
                Digital Signature
            X509v3 Basic Constraints: critical
                CA:FALSE
            X509v3 Subject Key Identifier:
                AB:EA:B4:DE:0F:54:23:75:B6:12:52:2C:26:D7:7C:57:9F:BF:C7:AE
    Signature Algorithm: sha256WithRSAEncryption
         70:c6:3e:82:f1:d4:c1:6d:8d:21:0b:d2:ca:80:6f:3c:dd:cd:
         2d:b5:a4:ce:d4:ce:3d:13:9e:e8:4a:be:18:3c:b3:fd:e8:fe:
         fa:11:82:82:d4:c1:51:02:1e:34:d2:96:41:16:b4:2f:13:45:
         1f:ac:e2:e9:86:89:84:8b:19:fa:ca:a0:68:80:68:4c:19:3b:
         30:dd:15:0b:23:3b:47:a3:8b:66:9a:aa:f0:3f:fe:f0:25:35:
         01:8d:6d:dc:cd:72:b9:f8:54:4e:90:2e:e2:28:cd:00:9b:97:
         1b:c8:5c:85:49:1e:c9:b5:5e:26:6b:71:67:73:f2:ac:91:8e:
         87:ec:ef:41:f7:10:16:6d:48:92:d3:60:03:16:f7:0e:c9:52:
         d8:d0:44:3c:d5:0f:44:b3:82:4c:48:31:31:28:22:f1:54:ed:
         06:9a:81:4f:a8:15:0b:6a:ae:d7:6b:af:5a:ab:db:bf:72:9c:
         e4:ab:13:3d:b2:cd:13:31:5d:87:3a:b0:ae:98:00:2a:d2:7e:
         08:43:53:32:23:20:76:dd:e7:a2:ba:4f:cd:4b:d2:0b:7c:bb:
         b2:87:65:d9:85:19:85:4b:20:07:38:8f:2d:54:60:16:9f:d9:
         fc:b2:bd:97:fe:cf:b4:db:4d:fa:b8:25:97:c7:8f:9d:c8:85:
         e4:49:7d:86
-----BEGIN CERTIFICATE-----
MIIDljCCAn6gAwIBAgIBATANBgkqhkiG9w0BAQsFADBtMSkwJwYDVQQKDCBUZXN0
IFF1YWxjb21tIFRlY2hub2xvZ2llcywgSW5jLjEoMCYGA1UECwwfVGVzdCBRdWFs
Y29tbSBDRE1BIFRlY2hub2xvZ2llczEWMBQGA1UEAwwNVGVzdCBJU1YgQSBDQTAi
GA8yMDE0MDEwMTAwMDAwMVoYDzIwMTUxMjMxMjM1OTU5WjBrMSkwJwYDVQQKDCBU
ZXN0IFF1YWxjb21tIFRlY2hub2xvZ2llcywgSW5jLjEoMCYGA1UECwwfVGVzdCBR
dWFsY29tbSBDRE1BIFRlY2hub2xvZ2llczEUMBIGA1UEAwwLVGVzdCBJU1YgQTEw
ggEiMA0GCSqGSIb3DQEBAQUAA4IBDwAwggEKAoIBAQDB/scRx3BzhBdEbgNCZxfw
OcSzcDRjO8EqHwZev0tdYal8IUAIpE2ANGYWQjemq/KQwvDZ6kbVC39ljUbICUWM
RcuZsYFG8j1ppwX9AiUlOiLzISjEtqXjFSbE6UXMd22cXjjd2UGPmYG+KUP5OtPx
2ReSLgsWp+Esfxhdg+QGGtqPVjzaW5dXVAT8rGDSoermR6e6qIGht4ZJIQL+Yzx2
yEhKwSkd+aE5J0whuYk4VMNvP2rqhZVUF7h3qAfQoPeod0ficpb4RcsoSQc0lNKZ
yp8JhqnQOeHzdOAPUHMnxD52/18XCyyyfAtjb6oyjSDArposeu9e92VQOLeOpgUz
AgMBAAGjPzA9MA4GA1UdDwEB/wQEAwIHgDAMBgNVHRMBAf8EAjAAMB0GA1UdDgQW
BBSr6rTeD1QjdbYSUiwm13xXn7/HrjANBgkqhkiG9w0BAQsFAAOCAQEAcMY+gvHU
wW2NIQvSyoBvPN3NLbWkztTOPROe6Eq+GDyz/ej++hGCgtTBUQIeNNKWQRa0LxNF
H6zi6YaJhIsZ+sqgaIBoTBk7MN0VCyM7R6OLZpqq8D/+8CU1AY1t3M1yufhUTpAu
4ijNAJuXG8hchUkeybVeJmtxZ3PyrJGOh+zvQfcQFm1IktNgAxb3DslS2NBEPNUP
RLOCTEgxMSgi8VTtBpqBT6gVC2qu12uvWqvbv3Kc5KsTPbLNEzFdhzqwrpgAKtJ+
CENTMiMgdt3norpPzUvSC3y7sodl2YUZhUsgBziPLVRgFp/Z/LK9l/7PtNtN+rgl
l8ePnciF5El9hg==
-----END CERTIFICATE-----
